Certificate:
    Data:
        Version: 3 (0x2)
        Serial Number: 1 (0x1)
        Signature Algorithm: sha256WithRSAEncryption
        Issuer: O=Test Org, CN=Test Org rauc CA Development
        Validity
            Not Before: Jan  1 00:00:00 1970 GMT
            Not After : Dec 31 23:59:59 9999 GMT
        Subject: O=Test Org, CN=Test Org rauc CA Development
        Subject Public Key Info:
            Public Key Algorithm: rsaEncryption
                RSA Public-Key: (2048 bit)
                Modulus:
                    00:e2:3c:f9:ad:28:e6:cb:6d:fa:40:5b:e3:37:1c:
                    8e:86:80:62:e5:90:1c:9d:68:da:78:4c:9b:a5:3d:
                    f2:90:45:de:5f:b5:df:b8:c3:33:44:7e:1f:cd:9e:
                    81:24:c8:c4:b2:06:2d:fb:6b:09:4a:5b:34:3f:10:
                    36:b9:d4:24:7c:ed:0e:de:ef:fd:bb:e1:4c:a5:e7:
                    44:ee:8f:57:ad:a3:33:b4:e5:8d:a0:2a:ca:86:c9:
                    7e:8c:71:52:df:60:88:82:9c:22:a7:51:16:22:52:
                    80:f2:a2:28:4a:f6:30:fd:ff:73:64:11:4b:e0:28:
                    4b:ff:51:91:9d:f4:36:61:85:0e:e6:63:71:cc:ac:
                    a8:a3:73:a5:4b:e1:dc:f3:09:b3:7f:4e:5d:92:e9:
                    1b:be:a8:43:57:33:75:15:7d:e4:39:aa:d0:50:ad:
                    93:89:00:82:99:88:9c:56:2d:d6:c3:0e:1d:ea:99:
                    8b:3e:43:5e:d0:ee:27:18:ff:60:18:54:b4:bf:bc:
                    63:85:db:f4:ea:9c:4b:5e:ef:6b:5e:a6:af:f4:b7:
                    07:e7:e7:92:9c:33:e4:16:01:b9:4c:7e:f6:c7:6c:
                    08:b8:f7:8b:49:65:bf:2b:7e:f2:28:91:6f:43:d4:
                    2f:b9:20:ae:27:33:0a:c7:15:63:4c:0e:8c:87:14:
                    b4:07
                Exponent: 65537 (0x10001)
        X509v3 extensions:
            X509v3 Subject Key Identifier: 
                BB:49:FD:AF:14:2F:8A:2D:32:1C:DA:06:95:8B:58:F4:95:D1:0D:17
            X509v3 Authority Key Identifier: 
                keyid:BB:49:FD:AF:14:2F:8A:2D:32:1C:DA:06:95:8B:58:F4:95:D1:0D:17
                DirName:/O=Test Org/CN=Test Org rauc CA Development
                serial:01

            X509v3 Basic Constraints: 
                CA:TRUE
    Signature Algorithm: sha256WithRSAEncryption
         20:87:3c:b2:7b:0c:af:0a:dc:16:4a:08:cf:91:a2:86:0a:5c:
         5b:78:e6:0d:d3:e5:0c:e5:68:05:40:24:41:d7:32:0b:fc:52:
         02:75:6d:e0:7f:23:14:82:bc:92:2b:ef:c3:c0:76:f3:2c:4b:
         ef:13:1b:86:29:e5:70:f6:f8:30:51:2f:94:4f:19:59:15:fb:
         7e:19:ef:b4:9a:85:f4:58:b1:cc:62:6c:62:8c:fa:41:93:e3:
         31:67:1f:da:90:db:77:4d:c1:e8:4c:44:df:9f:4a:fc:11:a0:
         72:5f:86:78:ff:48:67:41:5f:ca:5a:fe:25:53:97:ca:1a:de:
         62:25:b6:4f:aa:12:3e:e7:d5:a5:97:f1:ca:ff:cd:58:50:e1:
         c7:5e:d8:a8:7b:80:6f:ff:79:b2:c6:18:8f:27:9a:ba:a5:8d:
         43:91:c4:0b:1f:ae:f9:4d:5c:07:ea:7e:d3:e2:ce:56:c4:d1:
         ad:13:b5:3b:8e:f4:bb:f7:50:70:97:e4:ad:ba:a6:f1:4f:76:
         d0:8d:8a:7c:ff:3b:18:d2:ab:91:7d:db:8b:0f:ac:b7:3f:b6:
         85:5a:6c:4e:8c:90:ef:d5:54:a5:94:61:f7:96:92:d8:a9:ac:
         d9:9f:34:c3:42:9e:7e:b3:48:93:ec:ed:ca:ec:d4:b3:75:21:
         d4:1d:a4:a5
-----BEGIN CERTIFICATE-----
MIIDiDCCAnCgAwIBAgIBATANBgkqhkiG9w0BAQsFADA6MREwDwYDVQQKDAhUZXN0
IE9yZzElMCMGA1UEAwwcVGVzdCBPcmcgcmF1YyBDQSBEZXZlbG9wbWVudDAiGA8x
OTcwMDEwMTAwMDAwMFoYDzk5OTkxMjMxMjM1OTU5WjA6MREwDwYDVQQKDAhUZXN0
IE9yZzElMCMGA1UEAwwcVGVzdCBPcmcgcmF1YyBDQSBEZXZlbG9wbWVudDCCASIw
DQYJKoZIhvcNAQEBBQADggEPADCCAQoCggEBAOI8+a0o5stt+kBb4zccjoaAYuWQ
HJ1o2nhMm6U98pBF3l+137jDM0R+H82egSTIxLIGLftrCUpbND8QNrnUJHztDt7v
/bvhTKXnRO6PV62jM7TljaAqyobJfoxxUt9giIKcIqdRFiJSgPKiKEr2MP3/c2QR
S+AoS/9RkZ30NmGFDuZjccysqKNzpUvh3PMJs39OXZLpG76oQ1czdRV95Dmq0FCt
k4kAgpmInFYt1sMOHeqZiz5DXtDuJxj/YBhUtL+8Y4Xb9OqcS17va16mr/S3B+fn
kpwz5BYBuUx+9sdsCLj3i0llvyt+8iiRb0PUL7kgriczCscVY0wOjIcUtAcCAwEA
AaOBlDCBkTAdBgNVHQ4EFgQUu0n9rxQvii0yHNoGlYtY9JXRDRcwYgYDVR0jBFsw
WYAUu0n9rxQvii0yHNoGlYtY9JXRDRehPqQ8MDoxETAPBgNVBAoMCFRlc3QgT3Jn
MSUwIwYDVQQDDBxUZXN0IE9yZyByYXVjIENBIERldmVsb3BtZW50ggEBMAwGA1Ud
EwQFMAMBAf8wDQYJKoZIhvcNAQELBQADggEBACCHPLJ7DK8K3BZKCM+RooYKXFt4
5g3T5QzlaAVAJEHXMgv8UgJ1beB/IxSCvJIr78PAdvMsS+8TG4Yp5XD2+DBRL5RP
GVkV+34Z77SahfRYscxibGKM+kGT4zFnH9qQ23dNwehMRN+fSvwRoHJfhnj/SGdB
X8pa/iVTl8oa3mIltk+qEj7n1aWX8cr/zVhQ4cde2Kh7gG//ebLGGI8nmrqljUOR
xAsfrvlNXAfqftPizlbE0a0TtTuO9Lv3UHCX5K26pvFPdtCNinz/OxjSq5F924sP
rLc/toVabE6MkO/VVKWUYfeWktiprNmfNMNCnn6zSJPs7crs1LN1IdQdpKU=
-----END CERTIFICATE-----
